; Function Attrs: mustprogress nofree nounwind willreturn memory(write, argmem: readwrite) uwtable
define void @aiMatrix3FromRotationAroundAxis(ptr nocapture noundef writeonly %mat, ptr nocapture noundef readonly %axis, float noundef %angle) local_unnamed_addr #17 {
entry:
  %call.i.i = tail call noundef float @cosf(float noundef %angle) #44
  %call.i50.i = tail call noundef float @sinf(float noundef %angle) #44
  %sub.i = fsub float 1.000000e+00, %call.i.i
  %z4.i = getelementptr inbounds i8, ptr %axis, i64 8
  %0 = load float, ptr %z4.i, align 4
  %mul8.i = fmul float %call.i50.i, %0
  %neg.i = fneg float %mul8.i
  %1 = insertelement <4 x float> poison, float %call.i.i, i64 0
  %2 = insertelement <4 x float> %1, float %neg.i, i64 1
  %b2.i = getelementptr inbounds i8, ptr %mat, i64 16
  %3 = load <2 x float>, ptr %axis, align 4
  %4 = insertelement <2 x float> poison, float %sub.i, i64 0
  %5 = shufflevector <2 x float> %4, <2 x float> poison, <2 x i32> zeroinitializer
  %6 = fmul <2 x float> %5, %3
  %7 = shufflevector <2 x float> %6, <2 x float> poison, <4 x i32> <i32 1, i32 1, i32 0, i32 1>
  %8 = shufflevector <2 x float> %6, <2 x float> poison, <4 x i32> zeroinitializer
  %9 = shufflevector <2 x float> %3, <2 x float> poison, <4 x i32> <i32 0, i32 1, i32 poison, i32 poison>
  %10 = insertelement <4 x float> %9, float %0, i64 2
  %11 = shufflevector <4 x float> %10, <4 x float> poison, <4 x i32> <i32 0, i32 1, i32 2, i32 1>
  %12 = insertelement <2 x float> poison, float %call.i50.i, i64 0
  %13 = shufflevector <2 x float> %12, <2 x float> poison, <2 x i32> zeroinitializer
  %14 = fmul <2 x float> %13, %3
  %15 = shufflevector <2 x float> %14, <2 x float> poison, <4 x i32> <i32 0, i32 1, i32 poison, i32 poison>
  %16 = shufflevector <4 x float> %2, <4 x float> %15, <4 x i32> <i32 0, i32 1, i32 5, i32 poison>
  %17 = insertelement <4 x float> %16, float %mul8.i, i64 3
  %18 = tail call <4 x float> @llvm.fmuladd.v4f32(<4 x float> %8, <4 x float> %11, <4 x float> %17)
  store <4 x float> %18, ptr %mat, align 4
  %19 = insertelement <4 x float> %9, float %0, i64 0
  %20 = shufflevector <4 x float> %19, <4 x float> poison, <4 x i32> <i32 1, i32 0, i32 0, i32 0>
  %21 = shufflevector <2 x float> %14, <2 x float> poison, <4 x i32> <i32 0, i32 1, i32 poison, i32 poison>
  %22 = fneg <4 x float> %21
  %23 = shufflevector <4 x float> %1, <4 x float> %22, <4 x i32> <i32 0, i32 4, i32 5, i32 poison>
  %24 = shufflevector <4 x float> %23, <4 x float> %15, <4 x i32> <i32 0, i32 1, i32 2, i32 4>
  %25 = tail call <4 x float> @llvm.fmuladd.v4f32(<4 x float> %7, <4 x float> %20, <4 x float> %24)
  store <4 x float> %25, ptr %b2.i, align 4
  %mul28.i = fmul float %sub.i, %0
  %26 = tail call float @llvm.fmuladd.f32(float %mul28.i, float %0, float %call.i.i)
  %c3.i = getelementptr inbounds i8, ptr %mat, i64 32
  store float %26, ptr %c3.i, align 4
  ret void
}